target datalayout = "e-m:e-p270:32:32-p271:32:32-p272:64:64-i64:64-i128:128-f80:128-n8:16:32:64-S128"
target triple = "x86_64-unknown-linux-gnu"

%class.btMultiBodyGearConstraint = type { %class.btMultiBodyConstraint, ptr, ptr, %class.btVector3, %class.btVector3, %class.btMatrix3x3, %class.btMatrix3x3, float, i32, float, float }
%class.btMultiBodyConstraint = type { ptr, ptr, ptr, i32, i32, i32, i32, i32, i32, i32, i8, i32, float, %class.btAlignedObjectArray }
%class.btAlignedObjectArray = type <{ %class.btAlignedAllocator, [3 x i8], i32, i32, [4 x i8], ptr, i8, [7 x i8] }>
%class.btAlignedAllocator = type { i8 }
%class.btVector3 = type { [4 x float] }
%class.btMatrix3x3 = type { [3 x %class.btVector3] }

; Function Attrs: mustprogress uwtable
define linkonce_odr dso_local void @_ZN11btMatrix3x3C2Ev(ptr noundef nonnull align 4 dereferenceable(48) %this) unnamed_addr #2 comdat align 2 {
entry:
  %this.addr = alloca ptr, align 8
  store ptr %this, ptr %this.addr, align 8
  %this1 = load ptr, ptr %this.addr, align 8
  %m_el = getelementptr inbounds %class.btMatrix3x3, ptr %this1, i32 0, i32 0
  %array.begin = getelementptr inbounds [3 x %class.btVector3], ptr %m_el, i32 0, i32 0
  %arrayctor.end = getelementptr inbounds %class.btVector3, ptr %array.begin, i64 3
  br label %arrayctor.loop

arrayctor.loop:                                   ; preds = %arrayctor.loop, %entry
  %arrayctor.cur = phi ptr [ %array.begin, %entry ], [ %arrayctor.next, %arrayctor.loop ]
  call void @_ZN9btVector3C2Ev(ptr noundef nonnull align 4 dereferenceable(16) %arrayctor.cur)
  %arrayctor.next = getelementptr inbounds %class.btVector3, ptr %arrayctor.cur, i64 1
  %arrayctor.done = icmp eq ptr %arrayctor.next, %arrayctor.end
  br i1 %arrayctor.done, label %arrayctor.cont, label %arrayctor.loop

arrayctor.cont:                                   ; preds = %arrayctor.loop
  ret void
}

; Function Attrs: mustprogress nounwind uwtable
define linkonce_odr dso_local void @_ZN9btVector3C2Ev(ptr noundef nonnull align 4 dereferenceable(16) %this) unnamed_addr #1 comdat align 2 {
entry:
  %this.addr = alloca ptr, align 8
  store ptr %this, ptr %this.addr, align 8
  ret void
}

; Function Attrs: mustprogress uwtable
define dso_local void @_ZN25btMultiBodyGearConstraintC2EP11btMultiBodyiS1_iRK9btVector3S4_RK11btMatrix3x3S7_(ptr noundef nonnull align 8 dereferenceable(256) %this, ptr noundef %bodyA, i32 noundef %linkA, ptr noundef %bodyB, i32 noundef %linkB, ptr noundef nonnull align 4 dereferenceable(16) %pivotInA, ptr noundef nonnull align 4 dereferenceable(16) %pivotInB, ptr noundef nonnull align 4 dereferenceable(48) %frameInA, ptr noundef nonnull align 4 dereferenceable(48) %frameInB) unnamed_addr #2 align 2 personality ptr @__gxx_personality_v0 {
entry:
  %this.addr = alloca ptr, align 8
  %bodyA.addr = alloca ptr, align 8
  %linkA.addr = alloca i32, align 4
  %bodyB.addr = alloca ptr, align 8
  %linkB.addr = alloca i32, align 4
  %pivotInA.addr = alloca ptr, align 8
  %pivotInB.addr = alloca ptr, align 8
  %frameInA.addr = alloca ptr, align 8
  %frameInB.addr = alloca ptr, align 8
  %exn.slot = alloca ptr, align 8
  %ehselector.slot = alloca i32, align 4
  store ptr %this, ptr %this.addr, align 8
  store ptr %bodyA, ptr %bodyA.addr, align 8
  store i32 %linkA, ptr %linkA.addr, align 4
  store ptr %bodyB, ptr %bodyB.addr, align 8
  store i32 %linkB, ptr %linkB.addr, align 4
  store ptr %pivotInA, ptr %pivotInA.addr, align 8
  store ptr %pivotInB, ptr %pivotInB.addr, align 8
  store ptr %frameInA, ptr %frameInA.addr, align 8
  store ptr %frameInB, ptr %frameInB.addr, align 8
  %this1 = load ptr, ptr %this.addr, align 8
  %0 = load ptr, ptr %bodyA.addr, align 8
  %1 = load ptr, ptr %bodyB.addr, align 8
  %2 = load i32, ptr %linkA.addr, align 4
  %3 = load i32, ptr %linkB.addr, align 4
  call void @_ZN21btMultiBodyConstraintC2EP11btMultiBodyS1_iiibi(ptr noundef nonnull align 8 dereferenceable(96) %this1, ptr noundef %0, ptr noundef %1, i32 noundef %2, i32 noundef %3, i32 noundef 1, i1 noundef zeroext false, i32 noundef 5)
  store ptr getelementptr inbounds ({ [15 x ptr] }, ptr @_ZTV25btMultiBodyGearConstraint, i32 0, i32 0, i32 2), ptr %this1, align 8
  %m_pivotInA = getelementptr inbounds %class.btMultiBodyGearConstraint, ptr %this1, i32 0, i32 3
  invoke void @_ZN9btVector3C2Ev(ptr noundef nonnull align 4 dereferenceable(16) %m_pivotInA)
          to label %invoke.cont unwind label %lpad

invoke.cont:                                      ; preds = %entry
  %m_pivotInB = getelementptr inbounds %class.btMultiBodyGearConstraint, ptr %this1, i32 0, i32 4
  invoke void @_ZN9btVector3C2Ev(ptr noundef nonnull align 4 dereferenceable(16) %m_pivotInB)
          to label %invoke.cont2 unwind label %lpad

invoke.cont2:                                     ; preds = %invoke.cont
  %m_frameInA = getelementptr inbounds %class.btMultiBodyGearConstraint, ptr %this1, i32 0, i32 5
  invoke void @_ZN11btMatrix3x3C2Ev(ptr noundef nonnull align 4 dereferenceable(48) %m_frameInA)
          to label %invoke.cont3 unwind label %lpad

invoke.cont3:                                     ; preds = %invoke.cont2
  %m_frameInB = getelementptr inbounds %class.btMultiBodyGearConstraint, ptr %this1, i32 0, i32 6
  invoke void @_ZN11btMatrix3x3C2Ev(ptr noundef nonnull align 4 dereferenceable(48) %m_frameInB)
          to label %invoke.cont4 unwind label %lpad

invoke.cont4:                                     ; preds = %invoke.cont3
  %m_gearRatio = getelementptr inbounds %class.btMultiBodyGearConstraint, ptr %this1, i32 0, i32 7
  store float 1.000000e+00, ptr %m_gearRatio, align 8
  %m_gearAuxLink = getelementptr inbounds %class.btMultiBodyGearConstraint, ptr %this1, i32 0, i32 8
  store i32 -1, ptr %m_gearAuxLink, align 4
  %m_erp = getelementptr inbounds %class.btMultiBodyGearConstraint, ptr %this1, i32 0, i32 9
  store float 0.000000e+00, ptr %m_erp, align 8
  %m_relativePositionTarget = getelementptr inbounds %class.btMultiBodyGearConstraint, ptr %this1, i32 0, i32 10
  store float 0.000000e+00, ptr %m_relativePositionTarget, align 4
  ret void

lpad:                                             ; preds = %invoke.cont3, %invoke.cont2, %invoke.cont, %entry
  %4 = landingpad { ptr, i32 }
          cleanup
  %5 = extractvalue { ptr, i32 } %4, 0
  store ptr %5, ptr %exn.slot, align 8
  %6 = extractvalue { ptr, i32 } %4, 1
  store i32 %6, ptr %ehselector.slot, align 4
  call void @_ZN21btMultiBodyConstraintD2Ev(ptr noundef nonnull align 8 dereferenceable(96) %this1) #10
  br label %eh.resume

eh.resume:                                        ; preds = %lpad
  %exn = load ptr, ptr %exn.slot, align 8
  %sel = load i32, ptr %ehselector.slot, align 4
  %lpad.val = insertvalue { ptr, i32 } poison, ptr %exn, 0
  %lpad.val5 = insertvalue { ptr, i32 } %lpad.val, i32 %sel, 1
  resume { ptr, i32 } %lpad.val5
}